target datalayout = "e-m:e-p270:32:32-p271:32:32-p272:64:64-i64:64-i128:128-f80:128-n8:16:32:64-S128"
target triple = "x86_64-pc-linux-gnu"

%struct.varattrib_1b = type { i8, [0 x i8] }
%struct.anon = type { i32, [0 x i8] }
%struct.inet_struct = type { i8, i8, [16 x i8] }

; Function Attrs: nounwind uwtable
define dso_local i32 @bitncmp(ptr noundef %0, ptr noundef %1, i32 noundef %2) #0 {
  %4 = alloca i32, align 4
  %5 = alloca ptr, align 8
  %6 = alloca ptr, align 8
  %7 = alloca i32, align 4
  %8 = alloca i32, align 4
  %9 = alloca i32, align 4
  %10 = alloca i32, align 4
  %11 = alloca i32, align 4
  %12 = alloca i32, align 4
  store ptr %0, ptr %5, align 8
  store ptr %1, ptr %6, align 8
  store i32 %2, ptr %7, align 4
  call void @llvm.lifetime.start.p0(i64 4, ptr %8) #8
  call void @llvm.lifetime.start.p0(i64 4, ptr %9) #8
  call void @llvm.lifetime.start.p0(i64 4, ptr %10) #8
  call void @llvm.lifetime.start.p0(i64 4, ptr %11) #8
  %13 = load i32, ptr %7, align 4
  %14 = sdiv i32 %13, 8
  store i32 %14, ptr %11, align 4
  %15 = load ptr, ptr %5, align 8
  %16 = load ptr, ptr %6, align 8
  %17 = load i32, ptr %11, align 4
  %18 = sext i32 %17 to i64
  %19 = call i32 @memcmp(ptr noundef %15, ptr noundef %16, i64 noundef %18) #9
  store i32 %19, ptr %10, align 4
  %20 = load i32, ptr %10, align 4
  %21 = icmp ne i32 %20, 0
  br i1 %21, label %26, label %22

22:                                               ; preds = %3
  %23 = load i32, ptr %7, align 4
  %24 = srem i32 %23, 8
  %25 = icmp eq i32 %24, 0
  br i1 %25, label %26, label %28

26:                                               ; preds = %22, %3
  %27 = load i32, ptr %10, align 4
  store i32 %27, ptr %4, align 4
  store i32 1, ptr %12, align 4
  br label %73

28:                                               ; preds = %22
  %29 = load ptr, ptr %5, align 8
  %30 = load i32, ptr %11, align 4
  %31 = sext i32 %30 to i64
  %32 = getelementptr inbounds i8, ptr %29, i64 %31
  %33 = load i8, ptr %32, align 1
  %34 = zext i8 %33 to i32
  store i32 %34, ptr %8, align 4
  %35 = load ptr, ptr %6, align 8
  %36 = load i32, ptr %11, align 4
  %37 = sext i32 %36 to i64
  %38 = getelementptr inbounds i8, ptr %35, i64 %37
  %39 = load i8, ptr %38, align 1
  %40 = zext i8 %39 to i32
  store i32 %40, ptr %9, align 4
  %41 = load i32, ptr %7, align 4
  %42 = srem i32 %41, 8
  store i32 %42, ptr %11, align 4
  br label %43

43:                                               ; preds = %69, %28
  %44 = load i32, ptr %11, align 4
  %45 = icmp sgt i32 %44, 0
  br i1 %45, label %46, label %72

46:                                               ; preds = %43
  %47 = load i32, ptr %8, align 4
  %48 = trunc i32 %47 to i8
  %49 = zext i8 %48 to i32
  %50 = and i32 %49, 128
  %51 = load i32, ptr %9, align 4
  %52 = trunc i32 %51 to i8
  %53 = zext i8 %52 to i32
  %54 = and i32 %53, 128
  %55 = icmp ne i32 %50, %54
  br i1 %55, label %56, label %64

56:                                               ; preds = %46
  %57 = load i32, ptr %8, align 4
  %58 = trunc i32 %57 to i8
  %59 = zext i8 %58 to i32
  %60 = and i32 %59, 128
  %61 = icmp ne i32 %60, 0
  br i1 %61, label %62, label %63

62:                                               ; preds = %56
  store i32 1, ptr %4, align 4
  store i32 1, ptr %12, align 4
  br label %73

63:                                               ; preds = %56
  store i32 -1, ptr %4, align 4
  store i32 1, ptr %12, align 4
  br label %73

64:                                               ; preds = %46
  %65 = load i32, ptr %8, align 4
  %66 = shl i32 %65, 1
  store i32 %66, ptr %8, align 4
  %67 = load i32, ptr %9, align 4
  %68 = shl i32 %67, 1
  store i32 %68, ptr %9, align 4
  br label %69

69:                                               ; preds = %64
  %70 = load i32, ptr %11, align 4
  %71 = add i32 %70, -1
  store i32 %71, ptr %11, align 4
  br label %43, !llvm.loop !9

72:                                               ; preds = %43
  store i32 0, ptr %4, align 4
  store i32 1, ptr %12, align 4
  br label %73

73:                                               ; preds = %72, %63, %62, %26
  call void @llvm.lifetime.end.p0(i64 4, ptr %11) #8
  call void @llvm.lifetime.end.p0(i64 4, ptr %10) #8
  call void @llvm.lifetime.end.p0(i64 4, ptr %9) #8
  call void @llvm.lifetime.end.p0(i64 4, ptr %8) #8
  %74 = load i32, ptr %4, align 4
  ret i32 %74
}

; Function Attrs: nounwind uwtable
define internal i32 @network_cmp_internal(ptr noundef %0, ptr noundef %1) #0 {
  %3 = alloca i32, align 4
  %4 = alloca ptr, align 8
  %5 = alloca ptr, align 8
  %6 = alloca i32, align 4
  %7 = alloca i32, align 4
  store ptr %0, ptr %4, align 8
  store ptr %1, ptr %5, align 8
  %8 = load ptr, ptr %4, align 8
  %9 = getelementptr inbounds nuw %struct.varattrib_1b, ptr %8, i32 0, i32 0
  %10 = load i8, ptr %9, align 1
  %11 = zext i8 %10 to i32
  %12 = and i32 %11, 1
  %13 = icmp eq i32 %12, 1
  br i1 %13, label %14, label %18

14:                                               ; preds = %2
  %15 = load ptr, ptr %4, align 8
  %16 = getelementptr inbounds nuw %struct.varattrib_1b, ptr %15, i32 0, i32 1
  %17 = getelementptr inbounds [0 x i8], ptr %16, i64 0, i64 0
  br label %22

18:                                               ; preds = %2
  %19 = load ptr, ptr %4, align 8
  %20 = getelementptr inbounds nuw %struct.anon, ptr %19, i32 0, i32 1
  %21 = getelementptr inbounds [0 x i8], ptr %20, i64 0, i64 0
  br label %22

22:                                               ; preds = %18, %14
  %23 = phi ptr [ %17, %14 ], [ %21, %18 ]
  %24 = getelementptr inbounds nuw %struct.inet_struct, ptr %23, i32 0, i32 0
  %25 = load i8, ptr %24, align 1
  %26 = zext i8 %25 to i32
  %27 = load ptr, ptr %5, align 8
  %28 = getelementptr inbounds nuw %struct.varattrib_1b, ptr %27, i32 0, i32 0
  %29 = load i8, ptr %28, align 1
  %30 = zext i8 %29 to i32
  %31 = and i32 %30, 1
  %32 = icmp eq i32 %31, 1
  br i1 %32, label %33, label %37

33:                                               ; preds = %22
  %34 = load ptr, ptr %5, align 8
  %35 = getelementptr inbounds nuw %struct.varattrib_1b, ptr %34, i32 0, i32 1
  %36 = getelementptr inbounds [0 x i8], ptr %35, i64 0, i64 0
  br label %41

37:                                               ; preds = %22
  %38 = load ptr, ptr %5, align 8
  %39 = getelementptr inbounds nuw %struct.anon, ptr %38, i32 0, i32 1
  %40 = getelementptr inbounds [0 x i8], ptr %39, i64 0, i64 0
  br label %41

41:                                               ; preds = %37, %33
  %42 = phi ptr [ %36, %33 ], [ %40, %37 ]
  %43 = getelementptr inbounds nuw %struct.inet_struct, ptr %42, i32 0, i32 0
  %44 = load i8, ptr %43, align 1
  %45 = zext i8 %44 to i32
  %46 = icmp eq i32 %26, %45
  br i1 %46, label %47, label %274

47:                                               ; preds = %41
  call void @llvm.lifetime.start.p0(i64 4, ptr %6) #8
  %48 = load ptr, ptr %4, align 8
  %49 = getelementptr inbounds nuw %struct.varattrib_1b, ptr %48, i32 0, i32 0
  %50 = load i8, ptr %49, align 1
  %51 = zext i8 %50 to i32
  %52 = and i32 %51, 1
  %53 = icmp eq i32 %52, 1
  br i1 %53, label %54, label %58

54:                                               ; preds = %47
  %55 = load ptr, ptr %4, align 8
  %56 = getelementptr inbounds nuw %struct.varattrib_1b, ptr %55, i32 0, i32 1
  %57 = getelementptr inbounds [0 x i8], ptr %56, i64 0, i64 0
  br label %62

58:                                               ; preds = %47
  %59 = load ptr, ptr %4, align 8
  %60 = getelementptr inbounds nuw %struct.anon, ptr %59, i32 0, i32 1
  %61 = getelementptr inbounds [0 x i8], ptr %60, i64 0, i64 0
  br label %62

62:                                               ; preds = %58, %54
  %63 = phi ptr [ %57, %54 ], [ %61, %58 ]
  %64 = getelementptr inbounds nuw %struct.inet_struct, ptr %63, i32 0, i32 2
  %65 = getelementptr inbounds [16 x i8], ptr %64, i64 0, i64 0
  %66 = load ptr, ptr %5, align 8
  %67 = getelementptr inbounds nuw %struct.varattrib_1b, ptr %66, i32 0, i32 0
  %68 = load i8, ptr %67, align 1
  %69 = zext i8 %68 to i32
  %70 = and i32 %69, 1
  %71 = icmp eq i32 %70, 1
  br i1 %71, label %72, label %76

72:                                               ; preds = %62
  %73 = load ptr, ptr %5, align 8
  %74 = getelementptr inbounds nuw %struct.varattrib_1b, ptr %73, i32 0, i32 1
  %75 = getelementptr inbounds [0 x i8], ptr %74, i64 0, i64 0
  br label %80

76:                                               ; preds = %62
  %77 = load ptr, ptr %5, align 8
  %78 = getelementptr inbounds nuw %struct.anon, ptr %77, i32 0, i32 1
  %79 = getelementptr inbounds [0 x i8], ptr %78, i64 0, i64 0
  br label %80

80:                                               ; preds = %76, %72
  %81 = phi ptr [ %75, %72 ], [ %79, %76 ]
  %82 = getelementptr inbounds nuw %struct.inet_struct, ptr %81, i32 0, i32 2
  %83 = getelementptr inbounds [16 x i8], ptr %82, i64 0, i64 0
  %84 = load ptr, ptr %4, align 8
  %85 = getelementptr inbounds nuw %struct.varattrib_1b, ptr %84, i32 0, i32 0
  %86 = load i8, ptr %85, align 1
  %87 = zext i8 %86 to i32
  %88 = and i32 %87, 1
  %89 = icmp eq i32 %88, 1
  br i1 %89, label %90, label %94

90:                                               ; preds = %80
  %91 = load ptr, ptr %4, align 8
  %92 = getelementptr inbounds nuw %struct.varattrib_1b, ptr %91, i32 0, i32 1
  %93 = getelementptr inbounds [0 x i8], ptr %92, i64 0, i64 0
  br label %98

94:                                               ; preds = %80
  %95 = load ptr, ptr %4, align 8
  %96 = getelementptr inbounds nuw %struct.anon, ptr %95, i32 0, i32 1
  %97 = getelementptr inbounds [0 x i8], ptr %96, i64 0, i64 0
  br label %98

98:                                               ; preds = %94, %90
  %99 = phi ptr [ %93, %90 ], [ %97, %94 ]
  %100 = getelementptr inbounds nuw %struct.inet_struct, ptr %99, i32 0, i32 1
  %101 = load i8, ptr %100, align 1
  %102 = zext i8 %101 to i32
  %103 = load ptr, ptr %5, align 8
  %104 = getelementptr inbounds nuw %struct.varattrib_1b, ptr %103, i32 0, i32 0
  %105 = load i8, ptr %104, align 1
  %106 = zext i8 %105 to i32
  %107 = and i32 %106, 1
  %108 = icmp eq i32 %107, 1
  br i1 %108, label %109, label %113

109:                                              ; preds = %98
  %110 = load ptr, ptr %5, align 8
  %111 = getelementptr inbounds nuw %struct.varattrib_1b, ptr %110, i32 0, i32 1
  %112 = getelementptr inbounds [0 x i8], ptr %111, i64 0, i64 0
  br label %117

113:                                              ; preds = %98
  %114 = load ptr, ptr %5, align 8
  %115 = getelementptr inbounds nuw %struct.anon, ptr %114, i32 0, i32 1
  %116 = getelementptr inbounds [0 x i8], ptr %115, i64 0, i64 0
  br label %117

117:                                              ; preds = %113, %109
  %118 = phi ptr [ %112, %109 ], [ %116, %113 ]
  %119 = getelementptr inbounds nuw %struct.inet_struct, ptr %118, i32 0, i32 1
  %120 = load i8, ptr %119, align 1
  %121 = zext i8 %120 to i32
  %122 = icmp slt i32 %102, %121
  br i1 %122, label %123, label %143

123:                                              ; preds = %117
  %124 = load ptr, ptr %4, align 8
  %125 = getelementptr inbounds nuw %struct.varattrib_1b, ptr %124, i32 0, i32 0
  %126 = load i8, ptr %125, align 1
  %127 = zext i8 %126 to i32
  %128 = and i32 %127, 1
  %129 = icmp eq i32 %128, 1
  br i1 %129, label %130, label %134

130:                                              ; preds = %123
  %131 = load ptr, ptr %4, align 8
  %132 = getelementptr inbounds nuw %struct.varattrib_1b, ptr %131, i32 0, i32 1
  %133 = getelementptr inbounds [0 x i8], ptr %132, i64 0, i64 0
  br label %138

134:                                              ; preds = %123
  %135 = load ptr, ptr %4, align 8
  %136 = getelementptr inbounds nuw %struct.anon, ptr %135, i32 0, i32 1
  %137 = getelementptr inbounds [0 x i8], ptr %136, i64 0, i64 0
  br label %138

138:                                              ; preds = %134, %130
  %139 = phi ptr [ %133, %130 ], [ %137, %134 ]
  %140 = getelementptr inbounds nuw %struct.inet_struct, ptr %139, i32 0, i32 1
  %141 = load i8, ptr %140, align 1
  %142 = zext i8 %141 to i32
  br label %163

143:                                              ; preds = %117
  %144 = load ptr, ptr %5, align 8
  %145 = getelementptr inbounds nuw %struct.varattrib_1b, ptr %144, i32 0, i32 0
  %146 = load i8, ptr %145, align 1
  %147 = zext i8 %146 to i32
  %148 = and i32 %147, 1
  %149 = icmp eq i32 %148, 1
  br i1 %149, label %150, label %154

150:                                              ; preds = %143
  %151 = load ptr, ptr %5, align 8
  %152 = getelementptr inbounds nuw %struct.varattrib_1b, ptr %151, i32 0, i32 1
  %153 = getelementptr inbounds [0 x i8], ptr %152, i64 0, i64 0
  br label %158

154:                                              ; preds = %143
  %155 = load ptr, ptr %5, align 8
  %156 = getelementptr inbounds nuw %struct.anon, ptr %155, i32 0, i32 1
  %157 = getelementptr inbounds [0 x i8], ptr %156, i64 0, i64 0
  br label %158

158:                                              ; preds = %154, %150
  %159 = phi ptr [ %153, %150 ], [ %157, %154 ]
  %160 = getelementptr inbounds nuw %struct.inet_struct, ptr %159, i32 0, i32 1
  %161 = load i8, ptr %160, align 1
  %162 = zext i8 %161 to i32
  br label %163

163:                                              ; preds = %158, %138
  %164 = phi i32 [ %142, %138 ], [ %162, %158 ]
  %165 = call i32 @bitncmp(ptr noundef %65, ptr noundef %83, i32 noundef %164)
  store i32 %165, ptr %6, align 4
  %166 = load i32, ptr %6, align 4
  %167 = icmp ne i32 %166, 0
  br i1 %167, label %168, label %170

168:                                              ; preds = %163
  %169 = load i32, ptr %6, align 4
  store i32 %169, ptr %3, align 4
  store i32 1, ptr %7, align 4
  br label %273

170:                                              ; preds = %163
  %171 = load ptr, ptr %4, align 8
  %172 = getelementptr inbounds nuw %struct.varattrib_1b, ptr %171, i32 0, i32 0
  %173 = load i8, ptr %172, align 1
  %174 = zext i8 %173 to i32
  %175 = and i32 %174, 1
  %176 = icmp eq i32 %175, 1
  br i1 %176, label %177, label %181

177:                                              ; preds = %170
  %178 = load ptr, ptr %4, align 8
  %179 = getelementptr inbounds nuw %struct.varattrib_1b, ptr %178, i32 0, i32 1
  %180 = getelementptr inbounds [0 x i8], ptr %179, i64 0, i64 0
  br label %185

181:                                              ; preds = %170
  %182 = load ptr, ptr %4, align 8
  %183 = getelementptr inbounds nuw %struct.anon, ptr %182, i32 0, i32 1
  %184 = getelementptr inbounds [0 x i8], ptr %183, i64 0, i64 0
  br label %185

185:                                              ; preds = %181, %177
  %186 = phi ptr [ %180, %177 ], [ %184, %181 ]
  %187 = getelementptr inbounds nuw %struct.inet_struct, ptr %186, i32 0, i32 1
  %188 = load i8, ptr %187, align 1
  %189 = zext i8 %188 to i32
  %190 = load ptr, ptr %5, align 8
  %191 = getelementptr inbounds nuw %struct.varattrib_1b, ptr %190, i32 0, i32 0
  %192 = load i8, ptr %191, align 1
  %193 = zext i8 %192 to i32
  %194 = and i32 %193, 1
  %195 = icmp eq i32 %194, 1
  br i1 %195, label %196, label %200

196:                                              ; preds = %185
  %197 = load ptr, ptr %5, align 8
  %198 = getelementptr inbounds nuw %struct.varattrib_1b, ptr %197, i32 0, i32 1
  %199 = getelementptr inbounds [0 x i8], ptr %198, i64 0, i64 0
  br label %204

200:                                              ; preds = %185
  %201 = load ptr, ptr %5, align 8
  %202 = getelementptr inbounds nuw %struct.anon, ptr %201, i32 0, i32 1
  %203 = getelementptr inbounds [0 x i8], ptr %202, i64 0, i64 0
  br label %204

204:                                              ; preds = %200, %196
  %205 = phi ptr [ %199, %196 ], [ %203, %200 ]
  %206 = getelementptr inbounds nuw %struct.inet_struct, ptr %205, i32 0, i32 1
  %207 = load i8, ptr %206, align 1
  %208 = zext i8 %207 to i32
  %209 = sub i32 %189, %208
  store i32 %209, ptr %6, align 4
  %210 = load i32, ptr %6, align 4
  %211 = icmp ne i32 %210, 0
  br i1 %211, label %212, label %214

212:                                              ; preds = %204
  %213 = load i32, ptr %6, align 4
  store i32 %213, ptr %3, align 4
  store i32 1, ptr %7, align 4
  br label %273

214:                                              ; preds = %204
  %215 = load ptr, ptr %4, align 8
  %216 = getelementptr inbounds nuw %struct.varattrib_1b, ptr %215, i32 0, i32 0
  %217 = load i8, ptr %216, align 1
  %218 = zext i8 %217 to i32
  %219 = and i32 %218, 1
  %220 = icmp eq i32 %219, 1
  br i1 %220, label %221, label %225

221:                                              ; preds = %214
  %222 = load ptr, ptr %4, align 8
  %223 = getelementptr inbounds nuw %struct.varattrib_1b, ptr %222, i32 0, i32 1
  %224 = getelementptr inbounds [0 x i8], ptr %223, i64 0, i64 0
  br label %229

225:                                              ; preds = %214
  %226 = load ptr, ptr %4, align 8
  %227 = getelementptr inbounds nuw %struct.anon, ptr %226, i32 0, i32 1
  %228 = getelementptr inbounds [0 x i8], ptr %227, i64 0, i64 0
  br label %229

229:                                              ; preds = %225, %221
  %230 = phi ptr [ %224, %221 ], [ %228, %225 ]
  %231 = getelementptr inbounds nuw %struct.inet_struct, ptr %230, i32 0, i32 2
  %232 = getelementptr inbounds [16 x i8], ptr %231, i64 0, i64 0
  %233 = load ptr, ptr %5, align 8
  %234 = getelementptr inbounds nuw %struct.varattrib_1b, ptr %233, i32 0, i32 0
  %235 = load i8, ptr %234, align 1
  %236 = zext i8 %235 to i32
  %237 = and i32 %236, 1
  %238 = icmp eq i32 %237, 1
  br i1 %238, label %239, label %243

239:                                              ; preds = %229
  %240 = load ptr, ptr %5, align 8
  %241 = getelementptr inbounds nuw %struct.varattrib_1b, ptr %240, i32 0, i32 1
  %242 = getelementptr inbounds [0 x i8], ptr %241, i64 0, i64 0
  br label %247

243:                                              ; preds = %229
  %244 = load ptr, ptr %5, align 8
  %245 = getelementptr inbounds nuw %struct.anon, ptr %244, i32 0, i32 1
  %246 = getelementptr inbounds [0 x i8], ptr %245, i64 0, i64 0
  br label %247

247:                                              ; preds = %243, %239
  %248 = phi ptr [ %242, %239 ], [ %246, %243 ]
  %249 = getelementptr inbounds nuw %struct.inet_struct, ptr %248, i32 0, i32 2
  %250 = getelementptr inbounds [16 x i8], ptr %249, i64 0, i64 0
  %251 = load ptr, ptr %4, align 8
  %252 = getelementptr inbounds nuw %struct.varattrib_1b, ptr %251, i32 0, i32 0
  %253 = load i8, ptr %252, align 1
  %254 = zext i8 %253 to i32
  %255 = and i32 %254, 1
  %256 = icmp eq i32 %255, 1
  br i1 %256, label %257, label %261

257:                                              ; preds = %247
  %258 = load ptr, ptr %4, align 8
  %259 = getelementptr inbounds nuw %struct.varattrib_1b, ptr %258, i32 0, i32 1
  %260 = getelementptr inbounds [0 x i8], ptr %259, i64 0, i64 0
  br label %265

261:                                              ; preds = %247
  %262 = load ptr, ptr %4, align 8
  %263 = getelementptr inbounds nuw %struct.anon, ptr %262, i32 0, i32 1
  %264 = getelementptr inbounds [0 x i8], ptr %263, i64 0, i64 0
  br label %265

265:                                              ; preds = %261, %257
  %266 = phi ptr [ %260, %257 ], [ %264, %261 ]
  %267 = getelementptr inbounds nuw %struct.inet_struct, ptr %266, i32 0, i32 0
  %268 = load i8, ptr %267, align 1
  %269 = zext i8 %268 to i32
  %270 = icmp eq i32 %269, 2
  %271 = select i1 %270, i32 32, i32 128
  %272 = call i32 @bitncmp(ptr noundef %232, ptr noundef %250, i32 noundef %271)
  store i32 %272, ptr %3, align 4
  store i32 1, ptr %7, align 4
  br label %273

273:                                              ; preds = %265, %212, %168
  call void @llvm.lifetime.end.p0(i64 4, ptr %6) #8
  br label %314

274:                                              ; preds = %41
  %275 = load ptr, ptr %4, align 8
  %276 = getelementptr inbounds nuw %struct.varattrib_1b, ptr %275, i32 0, i32 0
  %277 = load i8, ptr %276, align 1
  %278 = zext i8 %277 to i32
  %279 = and i32 %278, 1
  %280 = icmp eq i32 %279, 1
  br i1 %280, label %281, label %285

281:                                              ; preds = %274
  %282 = load ptr, ptr %4, align 8
  %283 = getelementptr inbounds nuw %struct.varattrib_1b, ptr %282, i32 0, i32 1
  %284 = getelementptr inbounds [0 x i8], ptr %283, i64 0, i64 0
  br label %289

285:                                              ; preds = %274
  %286 = load ptr, ptr %4, align 8
  %287 = getelementptr inbounds nuw %struct.anon, ptr %286, i32 0, i32 1
  %288 = getelementptr inbounds [0 x i8], ptr %287, i64 0, i64 0
  br label %289

289:                                              ; preds = %285, %281
  %290 = phi ptr [ %284, %281 ], [ %288, %285 ]
  %291 = getelementptr inbounds nuw %struct.inet_struct, ptr %290, i32 0, i32 0
  %292 = load i8, ptr %291, align 1
  %293 = zext i8 %292 to i32
  %294 = load ptr, ptr %5, align 8
  %295 = getelementptr inbounds nuw %struct.varattrib_1b, ptr %294, i32 0, i32 0
  %296 = load i8, ptr %295, align 1
  %297 = zext i8 %296 to i32
  %298 = and i32 %297, 1
  %299 = icmp eq i32 %298, 1
  br i1 %299, label %300, label %304

300:                                              ; preds = %289
  %301 = load ptr, ptr %5, align 8
  %302 = getelementptr inbounds nuw %struct.varattrib_1b, ptr %301, i32 0, i32 1
  %303 = getelementptr inbounds [0 x i8], ptr %302, i64 0, i64 0
  br label %308

304:                                              ; preds = %289
  %305 = load ptr, ptr %5, align 8
  %306 = getelementptr inbounds nuw %struct.anon, ptr %305, i32 0, i32 1
  %307 = getelementptr inbounds [0 x i8], ptr %306, i64 0, i64 0
  br label %308

308:                                              ; preds = %304, %300
  %309 = phi ptr [ %303, %300 ], [ %307, %304 ]
  %310 = getelementptr inbounds nuw %struct.inet_struct, ptr %309, i32 0, i32 0
  %311 = load i8, ptr %310, align 1
  %312 = zext i8 %311 to i32
  %313 = sub i32 %293, %312
  store i32 %313, ptr %3, align 4
  br label %314

314:                                              ; preds = %308, %273
  %315 = load i32, ptr %3, align 4
  ret i32 %315
}