; Function Attrs: nofree nounwind memory(argmem: read) uwtable
define internal fastcc i32 @network_cmp_internal(ptr noundef readonly captures(none) %0, ptr noundef readonly captures(none) %1) unnamed_addr #5 {
  %3 = load i8, ptr %0, align 1
  %4 = and i8 %3, 1
  %.not = icmp eq i8 %4, 0
  %.v = select i1 %.not, i64 4, i64 1
  %5 = getelementptr inbounds nuw i8, ptr %0, i64 %.v
  %6 = load i8, ptr %5, align 1
  %7 = load i8, ptr %1, align 1
  %8 = and i8 %7, 1
  %.not55 = icmp eq i8 %8, 0
  %.v77 = select i1 %.not55, i64 4, i64 1
  %9 = getelementptr inbounds nuw i8, ptr %1, i64 %.v77
  %10 = load i8, ptr %9, align 1
  %11 = icmp eq i8 %6, %10
  br i1 %11, label %12, label %45

12:                                               ; preds = %2
  %13 = getelementptr inbounds nuw i8, ptr %5, i64 2
  %14 = getelementptr inbounds nuw i8, ptr %9, i64 2
  %15 = getelementptr inbounds nuw i8, ptr %5, i64 1
  %16 = load i8, ptr %15, align 1
  %17 = getelementptr inbounds nuw i8, ptr %9, i64 1
  %18 = load i8, ptr %17, align 1
  %. = tail call i8 @llvm.umin.i8(i8 %16, i8 %18)
  %19 = lshr i8 %., 3
  %20 = zext nneg i8 %19 to i64
  %21 = tail call i32 @memcmp(ptr noundef nonnull readonly %13, ptr noundef nonnull readonly %14, i64 noundef %20) #15
  %.not.i = icmp eq i32 %21, 0
  br i1 %.not.i, label %22, label %bitncmp.exit

22:                                               ; preds = %12
  %23 = and i8 %., 7
  %.not78 = icmp eq i8 %23, 0
  br i1 %.not78, label %.loopexit, label %.lr.ph.preheader.i

.lr.ph.preheader.i:                               ; preds = %22
  %.zext74 = zext nneg i8 %23 to i32
  %24 = getelementptr inbounds nuw i8, ptr %14, i64 %20
  %25 = load i8, ptr %24, align 1
  %26 = zext i8 %25 to i32
  %27 = getelementptr inbounds nuw i8, ptr %13, i64 %20
  %28 = load i8, ptr %27, align 1
  %29 = zext i8 %28 to i32
  br label %.lr.ph.i

.lr.ph.i:                                         ; preds = %33, %.lr.ph.preheader.i
  %.028.i = phi i32 [ %36, %33 ], [ %.zext74, %.lr.ph.preheader.i ]
  %.02027.i = phi i32 [ %35, %33 ], [ %26, %.lr.ph.preheader.i ]
  %.02126.i = phi i32 [ %34, %33 ], [ %29, %.lr.ph.preheader.i ]
  %30 = and i32 %.02126.i, 128
  %31 = and i32 %.02027.i, 128
  %.not24.i = icmp eq i32 %30, %31
  br i1 %.not24.i, label %33, label %32

32:                                               ; preds = %.lr.ph.i
  %.not25.i = icmp eq i32 %30, 0
  %..i = select i1 %.not25.i, i32 -1, i32 1
  br label %bitncmp.exit

33:                                               ; preds = %.lr.ph.i
  %34 = shl i32 %.02126.i, 1
  %35 = shl i32 %.02027.i, 1
  %36 = add nsw i32 %.028.i, -1
  %37 = icmp sgt i32 %.028.i, 1
  br i1 %37, label %.lr.ph.i, label %.loopexit, !llvm.loop !23

.loopexit:                                        ; preds = %33, %22
  %38 = zext i8 %16 to i32
  %39 = zext i8 %18 to i32
  %40 = sub nsw i32 %38, %39
  %.not59 = icmp eq i32 %40, 0
  br i1 %.not59, label %41, label %bitncmp.exit

41:                                               ; preds = %.loopexit
  %42 = icmp eq i8 %6, 2
  %43 = select i1 %42, i64 4, i64 16
  %44 = tail call i32 @memcmp(ptr noundef nonnull readonly dereferenceable(4) %13, ptr noundef nonnull readonly dereferenceable(4) %14, i64 noundef %43) #15
  br label %bitncmp.exit

45:                                               ; preds = %2
  %46 = zext i8 %10 to i32
  %47 = zext i8 %6 to i32
  %48 = sub nsw i32 %47, %46
  br label %bitncmp.exit

bitncmp.exit:                                     ; preds = %41, %32, %12, %.loopexit, %45
  %.1 = phi i32 [ %48, %45 ], [ %40, %.loopexit ], [ %21, %12 ], [ %..i, %32 ], [ %44, %41 ]
  ret i32 %.1
}